target datalayout = "e-m:e-p270:32:32-p271:32:32-p272:64:64-i64:64-i128:128-f80:128-n8:16:32:64-S128"
target triple = "x86_64-pc-linux-gnu"

%struct.CompactAttribute = type { i32, i16, i8, i8, i8, i8, i8, i8, i8 }
%struct.TupleDescData = type { i32, i32, i32, i32, ptr, [0 x %struct.CompactAttribute] }
%struct.anon = type { i32, [0 x i8] }
%struct.HeapTupleData = type { i32, %struct.ItemPointerData, i32, ptr }
%struct.ItemPointerData = type { %struct.BlockIdData, i16 }
%struct.BlockIdData = type { i16, i16 }
%struct.HeapTupleHeaderData = type { %union.anon, %struct.ItemPointerData, i16, i16, i8, [0 x i8] }
%union.anon = type { %struct.HeapTupleFields }
%struct.HeapTupleFields = type { i32, i32, %union.anon.1 }
%union.anon.1 = type { i32 }
%struct.DatumTupleFields = type { i32, i32, i32 }

@.str.1 = private unnamed_addr constant [12 x i8] c"heaptuple.c\00", align 1
@.str.2 = private unnamed_addr constant [42 x i8] c"number of columns (%d) exceeds limit (%d)\00", align 1
@__func__.heap_form_tuple = private unnamed_addr constant [16 x i8] c"heap_form_tuple\00", align 1

; Function Attrs: inlinehint nounwind uwtable
define internal void @BlockIdSet(ptr noundef %0, i32 noundef %1) #2 {
  %3 = alloca ptr, align 8
  %4 = alloca i32, align 4
  store ptr %0, ptr %3, align 8
  store i32 %1, ptr %4, align 4
  %5 = load i32, ptr %4, align 4
  %6 = lshr i32 %5, 16
  %7 = trunc i32 %6 to i16
  %8 = load ptr, ptr %3, align 8
  %9 = getelementptr inbounds nuw %struct.BlockIdData, ptr %8, i32 0, i32 0
  store i16 %7, ptr %9, align 2
  %10 = load i32, ptr %4, align 4
  %11 = and i32 %10, 65535
  %12 = trunc i32 %11 to i16
  %13 = load ptr, ptr %3, align 8
  %14 = getelementptr inbounds nuw %struct.BlockIdData, ptr %13, i32 0, i32 1
  store i16 %12, ptr %14, align 2
  ret void
}

; Function Attrs: inlinehint nounwind uwtable
define internal void @HeapTupleHeaderSetTypMod(ptr noundef %0, i32 noundef %1) #2 {
  %3 = alloca ptr, align 8
  %4 = alloca i32, align 4
  store ptr %0, ptr %3, align 8
  store i32 %1, ptr %4, align 4
  %5 = load i32, ptr %4, align 4
  %6 = load ptr, ptr %3, align 8
  %7 = getelementptr inbounds nuw %struct.HeapTupleHeaderData, ptr %6, i32 0, i32 0
  %8 = getelementptr inbounds nuw %struct.DatumTupleFields, ptr %7, i32 0, i32 1
  store i32 %5, ptr %8, align 4
  ret void
}

; Function Attrs: inlinehint nounwind uwtable
define internal void @HeapTupleHeaderSetTypeId(ptr noundef %0, i32 noundef %1) #2 {
  %3 = alloca ptr, align 8
  %4 = alloca i32, align 4
  store ptr %0, ptr %3, align 8
  store i32 %1, ptr %4, align 4
  %5 = load i32, ptr %4, align 4
  %6 = load ptr, ptr %3, align 8
  %7 = getelementptr inbounds nuw %struct.HeapTupleHeaderData, ptr %6, i32 0, i32 0
  %8 = getelementptr inbounds nuw %struct.DatumTupleFields, ptr %7, i32 0, i32 2
  store i32 %5, ptr %8, align 4
  ret void
}

; Function Attrs: inlinehint nounwind uwtable
define internal void @HeapTupleHeaderSetDatumLength(ptr noundef %0, i32 noundef %1) #2 {
  %3 = alloca ptr, align 8
  %4 = alloca i32, align 4
  store ptr %0, ptr %3, align 8
  store i32 %1, ptr %4, align 4
  %5 = load i32, ptr %4, align 4
  %6 = shl i32 %5, 2
  %7 = load ptr, ptr %3, align 8
  %8 = getelementptr inbounds nuw %struct.anon, ptr %7, i32 0, i32 0
  store i32 %6, ptr %8, align 4
  ret void
}

; Function Attrs: inlinehint nounwind uwtable
define internal void @ItemPointerSetInvalid(ptr noundef %0) #2 {
  %2 = alloca ptr, align 8
  store ptr %0, ptr %2, align 8
  %3 = load ptr, ptr %2, align 8
  %4 = getelementptr inbounds nuw %struct.ItemPointerData, ptr %3, i32 0, i32 0
  call void @BlockIdSet(ptr noundef %4, i32 noundef -1)
  %5 = load ptr, ptr %2, align 8
  %6 = getelementptr inbounds nuw %struct.ItemPointerData, ptr %5, i32 0, i32 1
  store i16 0, ptr %6, align 2
  ret void
}

; Function Attrs: inlinehint nounwind uwtable
define internal i32 @BITMAPLEN(i32 noundef %0) #2 {
  %2 = alloca i32, align 4
  store i32 %0, ptr %2, align 4
  %3 = load i32, ptr %2, align 4
  %4 = add i32 %3, 7
  %5 = sdiv i32 %4, 8
  ret i32 %5
}

; Function Attrs: nounwind uwtable
define dso_local ptr @heap_form_tuple(ptr noundef %0, ptr noundef %1, ptr noundef %2) #0 {
  %4 = alloca ptr, align 8
  %5 = alloca ptr, align 8
  %6 = alloca ptr, align 8
  %7 = alloca ptr, align 8
  %8 = alloca ptr, align 8
  %9 = alloca i64, align 8
  %10 = alloca i64, align 8
  %11 = alloca i32, align 4
  %12 = alloca i8, align 1
  %13 = alloca i32, align 4
  %14 = alloca i32, align 4
  store ptr %0, ptr %4, align 8
  store ptr %1, ptr %5, align 8
  store ptr %2, ptr %6, align 8
  call void @llvm.lifetime.start.p0(i64 8, ptr %7) #8
  call void @llvm.lifetime.start.p0(i64 8, ptr %8) #8
  call void @llvm.lifetime.start.p0(i64 8, ptr %9) #8
  call void @llvm.lifetime.start.p0(i64 8, ptr %10) #8
  call void @llvm.lifetime.start.p0(i64 4, ptr %11) #8
  call void @llvm.lifetime.start.p0(i64 1, ptr %12) #8
  store i8 0, ptr %12, align 1
  call void @llvm.lifetime.start.p0(i64 4, ptr %13) #8
  %15 = load ptr, ptr %4, align 8
  %16 = getelementptr inbounds nuw %struct.TupleDescData, ptr %15, i32 0, i32 0
  %17 = load i32, ptr %16, align 8
  store i32 %17, ptr %13, align 4
  call void @llvm.lifetime.start.p0(i64 4, ptr %14) #8
  %18 = load i32, ptr %13, align 4
  %19 = icmp sgt i32 %18, 1664
  br i1 %19, label %20, label %33

20:                                               ; preds = %3
  br label %21

21:                                               ; preds = %20
  br i1 true, label %22, label %24

22:                                               ; preds = %21
  %23 = call zeroext i1 @errstart_cold(i32 noundef 21, ptr noundef null) #10
  br i1 %23, label %26, label %30

24:                                               ; preds = %21
  %25 = call zeroext i1 @errstart(i32 noundef 21, ptr noundef null)
  br i1 %25, label %26, label %30

26:                                               ; preds = %24, %22
  %27 = call i32 @errcode(i32 noundef 17039621)
  %28 = load i32, ptr %13, align 4
  %29 = call i32 (ptr, ...) @errmsg(ptr noundef @.str.2, i32 noundef %28, i32 noundef 1664)
  call void @errfinish(ptr noundef @.str.1, i32 noundef 1134, ptr noundef @__func__.heap_form_tuple)
  br label %30

30:                                               ; preds = %26, %24, %22
  unreachable

31:                                               ; No predecessors!
  br label %32

32:                                               ; preds = %31
  br label %33

33:                                               ; preds = %32, %3
  store i32 0, ptr %14, align 4
  br label %34

34:                                               ; preds = %47, %33
  %35 = load i32, ptr %14, align 4
  %36 = load i32, ptr %13, align 4
  %37 = icmp slt i32 %35, %36
  br i1 %37, label %38, label %50

38:                                               ; preds = %34
  %39 = load ptr, ptr %6, align 8
  %40 = load i32, ptr %14, align 4
  %41 = sext i32 %40 to i64
  %42 = getelementptr inbounds i8, ptr %39, i64 %41
  %43 = load i8, ptr %42, align 1, !range !4, !noundef !5
  %44 = trunc i8 %43 to i1
  br i1 %44, label %45, label %46

45:                                               ; preds = %38
  store i8 1, ptr %12, align 1
  br label %50

46:                                               ; preds = %38
  br label %47

47:                                               ; preds = %46
  %48 = load i32, ptr %14, align 4
  %49 = add i32 %48, 1
  store i32 %49, ptr %14, align 4
  br label %34, !llvm.loop !16

50:                                               ; preds = %45, %34
  store i64 23, ptr %9, align 8
  %51 = load i8, ptr %12, align 1, !range !4, !noundef !5
  %52 = trunc i8 %51 to i1
  br i1 %52, label %53, label %59

53:                                               ; preds = %50
  %54 = load i32, ptr %13, align 4
  %55 = call i32 @BITMAPLEN(i32 noundef %54)
  %56 = sext i32 %55 to i64
  %57 = load i64, ptr %9, align 8
  %58 = add i64 %57, %56
  store i64 %58, ptr %9, align 8
  br label %59

59:                                               ; preds = %53, %50
  %60 = load i64, ptr %9, align 8
  %61 = add i64 %60, 7
  %62 = and i64 %61, -8
  store i64 %62, ptr %9, align 8
  %63 = trunc i64 %62 to i32
  store i32 %63, ptr %11, align 4
  %64 = load ptr, ptr %4, align 8
  %65 = load ptr, ptr %5, align 8
  %66 = load ptr, ptr %6, align 8
  %67 = call i64 @heap_compute_data_size(ptr noundef %64, ptr noundef %65, ptr noundef %66)
  store i64 %67, ptr %10, align 8
  %68 = load i64, ptr %10, align 8
  %69 = load i64, ptr %9, align 8
  %70 = add i64 %69, %68
  store i64 %70, ptr %9, align 8
  %71 = load i64, ptr %9, align 8
  %72 = add i64 24, %71
  %73 = call ptr @palloc0(i64 noundef %72)
  store ptr %73, ptr %7, align 8
  %74 = load ptr, ptr %7, align 8
  %75 = getelementptr inbounds nuw i8, ptr %74, i64 24
  store ptr %75, ptr %8, align 8
  %76 = load ptr, ptr %7, align 8
  %77 = getelementptr inbounds nuw %struct.HeapTupleData, ptr %76, i32 0, i32 3
  store ptr %75, ptr %77, align 8
  %78 = load i64, ptr %9, align 8
  %79 = trunc i64 %78 to i32
  %80 = load ptr, ptr %7, align 8
  %81 = getelementptr inbounds nuw %struct.HeapTupleData, ptr %80, i32 0, i32 0
  store i32 %79, ptr %81, align 8
  %82 = load ptr, ptr %7, align 8
  %83 = getelementptr inbounds nuw %struct.HeapTupleData, ptr %82, i32 0, i32 1
  call void @ItemPointerSetInvalid(ptr noundef %83)
  %84 = load ptr, ptr %7, align 8
  %85 = getelementptr inbounds nuw %struct.HeapTupleData, ptr %84, i32 0, i32 2
  store i32 0, ptr %85, align 4
  %86 = load ptr, ptr %8, align 8
  %87 = load i64, ptr %9, align 8
  %88 = trunc i64 %87 to i32
  call void @HeapTupleHeaderSetDatumLength(ptr noundef %86, i32 noundef %88)
  %89 = load ptr, ptr %8, align 8
  %90 = load ptr, ptr %4, align 8
  %91 = getelementptr inbounds nuw %struct.TupleDescData, ptr %90, i32 0, i32 1
  %92 = load i32, ptr %91, align 4
  call void @HeapTupleHeaderSetTypeId(ptr noundef %89, i32 noundef %92)
  %93 = load ptr, ptr %8, align 8
  %94 = load ptr, ptr %4, align 8
  %95 = getelementptr inbounds nuw %struct.TupleDescData, ptr %94, i32 0, i32 2
  %96 = load i32, ptr %95, align 8
  call void @HeapTupleHeaderSetTypMod(ptr noundef %93, i32 noundef %96)
  %97 = load ptr, ptr %8, align 8
  %98 = getelementptr inbounds nuw %struct.HeapTupleHeaderData, ptr %97, i32 0, i32 1
  call void @ItemPointerSetInvalid(ptr noundef %98)
  %99 = load ptr, ptr %8, align 8
  %100 = getelementptr inbounds nuw %struct.HeapTupleHeaderData, ptr %99, i32 0, i32 2
  %101 = load i16, ptr %100, align 2
  %102 = zext i16 %101 to i32
  %103 = and i32 %102, -2048
  %104 = load i32, ptr %13, align 4
  %105 = or i32 %103, %104
  %106 = trunc i32 %105 to i16
  %107 = load ptr, ptr %8, align 8
  %108 = getelementptr inbounds nuw %struct.HeapTupleHeaderData, ptr %107, i32 0, i32 2
  store i16 %106, ptr %108, align 2
  %109 = load i32, ptr %11, align 4
  %110 = trunc i32 %109 to i8
  %111 = load ptr, ptr %8, align 8
  %112 = getelementptr inbounds nuw %struct.HeapTupleHeaderData, ptr %111, i32 0, i32 4
  store i8 %110, ptr %112, align 2
  %113 = load ptr, ptr %4, align 8
  %114 = load ptr, ptr %5, align 8
  %115 = load ptr, ptr %6, align 8
  %116 = load ptr, ptr %8, align 8
  %117 = load i32, ptr %11, align 4
  %118 = sext i32 %117 to i64
  %119 = getelementptr inbounds i8, ptr %116, i64 %118
  %120 = load i64, ptr %10, align 8
  %121 = load ptr, ptr %8, align 8
  %122 = getelementptr inbounds nuw %struct.HeapTupleHeaderData, ptr %121, i32 0, i32 3
  %123 = load i8, ptr %12, align 1, !range !4, !noundef !5
  %124 = trunc i8 %123 to i1
  br i1 %124, label %125, label %129

125:                                              ; preds = %59
  %126 = load ptr, ptr %8, align 8
  %127 = getelementptr inbounds nuw %struct.HeapTupleHeaderData, ptr %126, i32 0, i32 5
  %128 = getelementptr inbounds [0 x i8], ptr %127, i64 0, i64 0
  br label %130

129:                                              ; preds = %59
  br label %130

130:                                              ; preds = %129, %125
  %131 = phi ptr [ %128, %125 ], [ null, %129 ]
  call void @heap_fill_tuple(ptr noundef %113, ptr noundef %114, ptr noundef %115, ptr noundef %119, i64 noundef %120, ptr noundef %122, ptr noundef %131)
  %132 = load ptr, ptr %7, align 8
  call void @llvm.lifetime.end.p0(i64 4, ptr %14) #8
  call void @llvm.lifetime.end.p0(i64 4, ptr %13) #8
  call void @llvm.lifetime.end.p0(i64 1, ptr %12) #8
  call void @llvm.lifetime.end.p0(i64 4, ptr %11) #8
  call void @llvm.lifetime.end.p0(i64 8, ptr %10) #8
  call void @llvm.lifetime.end.p0(i64 8, ptr %9) #8
  call void @llvm.lifetime.end.p0(i64 8, ptr %8) #8
  call void @llvm.lifetime.end.p0(i64 8, ptr %7) #8
  ret ptr %132
}