; Function Attrs: nounwind uwtable
define dso_local noundef ptr @heap_form_tuple(ptr noundef readonly captures(none) %0, ptr noundef captures(address_is_null) %1, ptr noundef captures(address_is_null) %2) local_unnamed_addr #0 {
  %4 = load i32, ptr %0, align 8
  %5 = icmp sgt i32 %4, 1664
  br i1 %5, label %7, label %.preheader

.preheader:                                       ; preds = %3
  %6 = icmp sgt i32 %4, 0
  br i1 %6, label %.lr.ph.preheader, label %.critedge

.lr.ph.preheader:                                 ; preds = %.preheader
  %wide.trip.count = zext nneg i32 %4 to i64
  br label %.lr.ph

7:                                                ; preds = %3
  %8 = tail call zeroext i1 @errstart_cold(i32 noundef 21, ptr noundef null) #14
  tail call void @llvm.assume(i1 %8)
  %9 = tail call i32 @errcode(i32 noundef 17039621) #12
  %10 = tail call i32 (ptr, ...) @errmsg(ptr noundef nonnull @.str.2, i32 noundef %4, i32 noundef 1664) #12
  tail call void @errfinish(ptr noundef nonnull @.str.1, i32 noundef 1134, ptr noundef nonnull @__func__.heap_form_tuple) #12
  unreachable

11:                                               ; preds = %.lr.ph
  %indvars.iv.next = add nuw nsw i64 %indvars.iv, 1
  %exitcond.not = icmp eq i64 %indvars.iv.next, %wide.trip.count
  br i1 %exitcond.not, label %.critedge, label %.lr.ph, !llvm.loop !16

.lr.ph:                                           ; preds = %.lr.ph.preheader, %11
  %indvars.iv = phi i64 [ 0, %.lr.ph.preheader ], [ %indvars.iv.next, %11 ]
  %12 = getelementptr inbounds nuw i8, ptr %2, i64 %indvars.iv
  %13 = load i8, ptr %12, align 1, !range !4, !noundef !5
  %14 = trunc nuw i8 %13 to i1
  br i1 %14, label %15, label %11

15:                                               ; preds = %.lr.ph
  %16 = add nuw i32 %4, 7
  %17 = sdiv i32 %16, 8
  %narrow = add nsw i32 %17, 30
  %18 = and i32 %narrow, -8
  %19 = sext i32 %18 to i64
  br label %.critedge

.critedge:                                        ; preds = %11, %.preheader, %15
  %20 = phi i1 [ true, %15 ], [ false, %.preheader ], [ false, %11 ]
  %.045 = phi i64 [ %19, %15 ], [ 24, %.preheader ], [ 24, %11 ]
  %21 = tail call i64 @heap_compute_data_size(ptr noundef nonnull %0, ptr noundef %1, ptr noundef %2)
  %22 = add i64 %21, %.045
  %23 = add i64 %22, 24
  %24 = tail call ptr @palloc0(i64 noundef %23) #12
  %25 = getelementptr inbounds nuw i8, ptr %24, i64 24
  %26 = getelementptr inbounds nuw i8, ptr %24, i64 16
  store ptr %25, ptr %26, align 8
  %27 = trunc i64 %22 to i32
  store i32 %27, ptr %24, align 8
  %28 = getelementptr inbounds nuw i8, ptr %24, i64 4
  store i16 -1, ptr %28, align 2
  %29 = getelementptr inbounds nuw i8, ptr %24, i64 6
  store i16 -1, ptr %29, align 2
  %30 = getelementptr inbounds nuw i8, ptr %24, i64 8
  store i16 0, ptr %30, align 2
  %31 = getelementptr inbounds nuw i8, ptr %24, i64 12
  store i32 0, ptr %31, align 4
  %32 = shl i32 %27, 2
  store i32 %32, ptr %25, align 4
  %33 = getelementptr inbounds nuw i8, ptr %0, i64 4
  %34 = load i32, ptr %33, align 4
  %35 = getelementptr inbounds nuw i8, ptr %24, i64 32
  store i32 %34, ptr %35, align 4
  %36 = getelementptr inbounds nuw i8, ptr %0, i64 8
  %37 = load i32, ptr %36, align 8
  %38 = getelementptr inbounds nuw i8, ptr %24, i64 28
  store i32 %37, ptr %38, align 4
  %39 = getelementptr inbounds nuw i8, ptr %24, i64 36
  store i16 -1, ptr %39, align 2
  %40 = getelementptr inbounds nuw i8, ptr %24, i64 38
  store i16 -1, ptr %40, align 2
  %41 = getelementptr inbounds nuw i8, ptr %24, i64 40
  store i16 0, ptr %41, align 2
  %42 = getelementptr inbounds nuw i8, ptr %24, i64 42
  %43 = load i16, ptr %42, align 2
  %44 = and i16 %43, -2048
  %45 = trunc i32 %4 to i16
  %46 = or i16 %44, %45
  store i16 %46, ptr %42, align 2
  %47 = trunc i64 %.045 to i8
  %48 = getelementptr inbounds nuw i8, ptr %24, i64 46
  store i8 %47, ptr %48, align 2
  %49 = getelementptr inbounds i8, ptr %25, i64 %.045
  %50 = getelementptr inbounds nuw i8, ptr %24, i64 44
  %51 = getelementptr inbounds nuw i8, ptr %24, i64 47
  %spec.select = select i1 %20, ptr %51, ptr null
  tail call void @heap_fill_tuple(ptr noundef nonnull %0, ptr noundef %1, ptr noundef %2, ptr noundef nonnull %49, i64 poison, ptr noundef nonnull %50, ptr noundef %spec.select)
  ret ptr %24
}